target datalayout = "e-m:e-p270:32:32-p271:32:32-p272:64:64-i64:64-i128:128-f80:128-n8:16:32:64-S128"
target triple = "x86_64-pc-linux-gnu"

%"class.sat::literal" = type { i32 }
%class.rational = type { %class.mpq }
%class.mpq = type { %class.mpz, %class.mpz }
%class.mpz = type { i32, i8, ptr }
%"class.arith::solver" = type { %"class.euf::th_euf_solver.base", [4 x i8], %class.int_hashtable, i8, %class.scoped_ptr_vector, i32, %class.vector.5, %class.vector.6, i32, i32, i32, i32, %class.svector.7, %class.svector.9, %class.svector.11, %class.svector.13, %class.svector.15, %class.svector.9, ptr, %class.ptr_vector.17, %class.ptr_vector.19, %class.ptr_vector.17, %class.vector.21, %class.u_map, %class.vector.21, %class.svector.1, %class.svector.1, i32, %class.svector.24, i32, %class.indexed_uint_set, i32, %"struct.lp_api::stats", %class.svector.26, %class.scoped_ptr, i8, %class.scoped_ptr.28, %class.scoped_ptr.29, %"class.arith::solver::resource_limit", %class.ptr_vector.30, %class.symbol, %"class.std::vector", %"class.lp::lp_bound_propagator", %class.vector.41, %"class.lp::explanation", %class.svector.9, %class.svector.9, %class.vector.5, %class.svector.11, %class.vector.44, %"class.nla::lemma", %class.arith_util, i8, %class.vector.41, %class.vector.41, %class.vector.41, %class.vector.5, %class.map.46, i32, %"class.sat::literal", %class.ref_vector, %class.obj_ref, i8, [7 x i8], %"class.arith::arith_proof_hint_builder" }
%"class.euf::th_euf_solver.base" = type <{ %"class.euf::th_solver", ptr, %class.ptr_vector, %class.svector.1, i32 }>
%"class.euf::th_solver" = type { %"class.sat::extension", %"class.euf::th_model_builder", %"class.euf::th_decompile", %"class.euf::th_internalizer", ptr }
%"class.sat::extension" = type { ptr, i8, i32, %class.symbol, ptr }
%"class.euf::th_model_builder" = type { ptr }
%"class.euf::th_decompile" = type { ptr }
%"class.euf::th_internalizer" = type { ptr, %class.ptr_vector, %class.svector }
%class.svector = type { %class.vector.0 }
%class.vector.0 = type { ptr }
%class.ptr_vector = type { %class.vector }
%class.vector = type { ptr }
%class.int_hashtable = type { %class.core_hashtable.base, [4 x i8] }
%class.core_hashtable.base = type <{ %"struct.arith::solver::var_value_hash", %"struct.arith::solver::var_value_eq", ptr, i32, i32, i32 }>
%"struct.arith::solver::var_value_hash" = type { ptr }
%"struct.arith::solver::var_value_eq" = type { ptr }
%class.scoped_ptr_vector = type { %class.ptr_vector.3 }
%class.ptr_vector.3 = type { %class.vector.4 }
%class.vector.4 = type { ptr }
%class.vector.6 = type { ptr }
%class.svector.7 = type { %class.vector.8 }
%class.vector.8 = type { ptr }
%class.svector.13 = type { %class.vector.14 }
%class.vector.14 = type { ptr }
%class.svector.15 = type { %class.vector.16 }
%class.vector.16 = type { ptr }
%class.ptr_vector.19 = type { %class.vector.20 }
%class.vector.20 = type { ptr }
%class.ptr_vector.17 = type { %class.vector.18 }
%class.vector.18 = type { ptr }
%class.u_map = type { %class.map }
%class.map = type { %class.table2map }
%class.table2map = type { %class.core_hashtable.22 }
%class.core_hashtable.22 = type <{ ptr, i32, i32, i32, [4 x i8] }>
%class.vector.21 = type { ptr }
%class.svector.1 = type { %class.vector.2 }
%class.vector.2 = type { ptr }
%class.svector.24 = type { %class.vector.25 }
%class.vector.25 = type { ptr }
%class.indexed_uint_set = type { i32, %class.svector.1, %class.svector.1 }
%"struct.lp_api::stats" = type { i32, i32, i32, i32, i32, i32, i32, i32, i32, i32, i32, i32, i32, i32, i32, i32 }
%class.svector.26 = type { %class.vector.27 }
%class.vector.27 = type { ptr }
%class.scoped_ptr = type { ptr }
%class.scoped_ptr.28 = type { ptr }
%class.scoped_ptr.29 = type { ptr }
%"class.arith::solver::resource_limit" = type { %"class.lp::lp_resource_limit", ptr }
%"class.lp::lp_resource_limit" = type { ptr }
%class.ptr_vector.30 = type { %class.vector.31 }
%class.vector.31 = type { ptr }
%class.symbol = type { ptr }
%"class.std::vector" = type { %"struct.std::_Vector_base" }
%"struct.std::_Vector_base" = type { %"struct.std::_Vector_base<lp::implied_bound, std_allocator<lp::implied_bound>>::_Vector_impl" }
%"struct.std::_Vector_base<lp::implied_bound, std_allocator<lp::implied_bound>>::_Vector_impl" = type { %"struct.std::_Vector_base<lp::implied_bound, std_allocator<lp::implied_bound>>::_Vector_impl_data" }
%"struct.std::_Vector_base<lp::implied_bound, std_allocator<lp::implied_bound>>::_Vector_impl_data" = type { ptr, ptr, ptr }
%"class.lp::lp_bound_propagator" = type { %class.uint_set, %class.u_map.32, %class.u_map.32, ptr, ptr, %class.map.37, %class.map.37, %class.map.37, ptr }
%class.uint_set = type { %class.svector.1 }
%class.u_map.32 = type { %class.map.33 }
%class.map.33 = type { %class.table2map.34 }
%class.table2map.34 = type { %class.core_hashtable.35 }
%class.core_hashtable.35 = type <{ ptr, i32, i32, i32, [4 x i8] }>
%class.map.37 = type { %class.table2map.38 }
%class.table2map.38 = type { %class.core_hashtable.39 }
%class.core_hashtable.39 = type <{ ptr, i32, i32, i32, [4 x i8] }>
%"class.lp::explanation" = type { %class.vector.41, %class.hashtable }
%class.hashtable = type { %class.core_hashtable.base.43, [4 x i8] }
%class.core_hashtable.base.43 = type <{ ptr, i32, i32, i32 }>
%class.svector.9 = type { %class.vector.10 }
%class.vector.10 = type { ptr }
%class.svector.11 = type { %class.vector.12 }
%class.vector.12 = type { ptr }
%class.vector.44 = type { ptr }
%"class.nla::lemma" = type { %class.vector.45, %"class.lp::explanation" }
%class.vector.45 = type { ptr }
%class.arith_util = type { ptr, ptr }
%class.vector.41 = type { ptr }
%class.vector.5 = type { ptr }
%class.map.46 = type { %class.table2map.47 }
%class.table2map.47 = type { %class.core_hashtable.48 }
%class.core_hashtable.48 = type <{ ptr, i32, i32, i32, [4 x i8] }>
%class.ref_vector = type { %class.ref_vector_core }
%class.ref_vector_core = type { %class.ref_manager_wrapper, %class.ptr_vector.19 }
%class.ref_manager_wrapper = type { ptr }
%class.obj_ref = type { ptr, ptr }
%"class.arith::arith_proof_hint_builder" = type <{ %class.vector.50, %class.svector.51, i32, i32, i32, i32, i32, [4 x i8] }>
%class.vector.50 = type { ptr }
%class.svector.51 = type { %class.vector.52 }
%class.vector.52 = type { ptr }

@_ZN8rational13g_mpq_managerE = external global ptr, align 8

; Function Attrs: mustprogress nounwind uwtable
define linkonce_odr hidden noundef i32 @_ZN11mpz_managerILb1EE4signERK3mpz(ptr noundef nonnull align 8 dereferenceable(16) %0) #4 comdat align 2 {
  %2 = alloca ptr, align 8
  store ptr %0, ptr %2, align 8, !tbaa !357
  %3 = load ptr, ptr %2, align 8, !tbaa !357
  %4 = getelementptr inbounds nuw %class.mpz, ptr %3, i32 0, i32 0
  %5 = load i32, ptr %4, align 8, !tbaa !359
  ret i32 %5
}

; Function Attrs: mustprogress nounwind uwtable
define linkonce_odr hidden noundef zeroext i1 @_ZN11mpz_managerILb1EE7is_zeroERK3mpz(ptr noundef nonnull align 8 dereferenceable(16) %0) #4 comdat align 2 {
  %2 = alloca ptr, align 8
  store ptr %0, ptr %2, align 8, !tbaa !357
  %3 = load ptr, ptr %2, align 8, !tbaa !357
  %4 = call noundef i32 @_ZN11mpz_managerILb1EE4signERK3mpz(ptr noundef nonnull align 8 dereferenceable(16) %3)
  %5 = icmp eq i32 %4, 0
  ret i1 %5
}

; Function Attrs: mustprogress uwtable
define linkonce_odr hidden noundef zeroext i1 @_ZN11mpq_managerILb1EE7is_zeroERK3mpz(ptr noundef nonnull align 8 dereferenceable(16) %0) #6 comdat align 2 {
  %2 = alloca ptr, align 8
  store ptr %0, ptr %2, align 8, !tbaa !357
  %3 = load ptr, ptr %2, align 8, !tbaa !357
  %4 = call noundef zeroext i1 @_ZN11mpz_managerILb1EE7is_zeroERK3mpz(ptr noundef nonnull align 8 dereferenceable(16) %3)
  ret i1 %4
}

; Function Attrs: mustprogress nounwind uwtable
define linkonce_odr hidden void @_ZN3mpzC2Ei(ptr noundef nonnull align 8 dereferenceable(16) %0, i32 noundef %1) unnamed_addr #4 comdat align 2 {
  %3 = alloca ptr, align 8
  %4 = alloca i32, align 4
  store ptr %0, ptr %3, align 8, !tbaa !357
  store i32 %1, ptr %4, align 4, !tbaa !8
  %5 = load ptr, ptr %3, align 8
  %6 = getelementptr inbounds nuw %class.mpz, ptr %5, i32 0, i32 0
  %7 = load i32, ptr %4, align 4, !tbaa !8
  store i32 %7, ptr %6, align 8, !tbaa !359
  %8 = getelementptr inbounds nuw %class.mpz, ptr %5, i32 0, i32 1
  %9 = load i8, ptr %8, align 4
  %10 = and i8 %9, -2
  %11 = or i8 %10, 0
  store i8 %11, ptr %8, align 4
  %12 = getelementptr inbounds nuw %class.mpz, ptr %5, i32 0, i32 1
  %13 = load i8, ptr %12, align 4
  %14 = and i8 %13, -3
  %15 = or i8 %14, 0
  store i8 %15, ptr %12, align 4
  %16 = getelementptr inbounds nuw %class.mpz, ptr %5, i32 0, i32 2
  store ptr null, ptr %16, align 8, !tbaa !360
  ret void
}

; Function Attrs: mustprogress nounwind uwtable
define linkonce_odr hidden void @_ZN3mpzC2Ev(ptr noundef nonnull align 8 dereferenceable(16) %0) unnamed_addr #4 comdat align 2 {
  %2 = alloca ptr, align 8
  store ptr %0, ptr %2, align 8, !tbaa !357
  %3 = load ptr, ptr %2, align 8
  %4 = getelementptr inbounds nuw %class.mpz, ptr %3, i32 0, i32 0
  store i32 0, ptr %4, align 8, !tbaa !359
  %5 = getelementptr inbounds nuw %class.mpz, ptr %3, i32 0, i32 1
  %6 = load i8, ptr %5, align 4
  %7 = and i8 %6, -2
  %8 = or i8 %7, 0
  store i8 %8, ptr %5, align 4
  %9 = getelementptr inbounds nuw %class.mpz, ptr %3, i32 0, i32 1
  %10 = load i8, ptr %9, align 4
  %11 = and i8 %10, -3
  %12 = or i8 %11, 0
  store i8 %12, ptr %9, align 4
  %13 = getelementptr inbounds nuw %class.mpz, ptr %3, i32 0, i32 2
  store ptr null, ptr %13, align 8, !tbaa !360
  ret void
}

; Function Attrs: mustprogress uwtable
define linkonce_odr hidden noundef zeroext i1 @_ZN11mpq_managerILb1EE7is_zeroERK3mpq(ptr noundef nonnull align 8 dereferenceable(32) %0) #6 comdat align 2 {
  %2 = alloca ptr, align 8
  store ptr %0, ptr %2, align 8, !tbaa !355
  %3 = load ptr, ptr %2, align 8, !tbaa !355
  %4 = getelementptr inbounds nuw %class.mpq, ptr %3, i32 0, i32 0
  %5 = call noundef zeroext i1 @_ZN11mpq_managerILb1EE7is_zeroERK3mpz(ptr noundef nonnull align 8 dereferenceable(16) %4)
  ret i1 %5
}

; Function Attrs: mustprogress nounwind uwtable
define linkonce_odr hidden noundef nonnull align 8 dereferenceable(728) ptr @_ZN8rational1mEv() #4 comdat align 2 {
  %1 = load ptr, ptr @_ZN8rational13g_mpq_managerE, align 8, !tbaa !62
  ret ptr %1
}

; Function Attrs: mustprogress uwtable
define linkonce_odr hidden void @_ZN3mpqC2Ev(ptr noundef nonnull align 8 dereferenceable(32) %0) unnamed_addr #6 comdat align 2 {
  %2 = alloca ptr, align 8
  store ptr %0, ptr %2, align 8, !tbaa !355
  %3 = load ptr, ptr %2, align 8
  %4 = getelementptr inbounds nuw %class.mpq, ptr %3, i32 0, i32 0
  call void @_ZN3mpzC2Ev(ptr noundef nonnull align 8 dereferenceable(16) %4)
  %5 = getelementptr inbounds nuw %class.mpq, ptr %3, i32 0, i32 1
  call void @_ZN3mpzC2Ei(ptr noundef nonnull align 8 dereferenceable(16) %5, i32 noundef 1)
  ret void
}

; Function Attrs: mustprogress uwtable
define linkonce_odr hidden noundef zeroext i1 @_ZNK8rational7is_zeroEv(ptr noundef nonnull align 8 dereferenceable(32) %0) #6 comdat align 2 {
  %2 = alloca ptr, align 8
  store ptr %0, ptr %2, align 8, !tbaa !58
  %3 = load ptr, ptr %2, align 8
  %4 = call noundef nonnull align 8 dereferenceable(728) ptr @_ZN8rational1mEv()
  %5 = getelementptr inbounds nuw %class.rational, ptr %3, i32 0, i32 0
  %6 = call noundef zeroext i1 @_ZN11mpq_managerILb1EE7is_zeroERK3mpq(ptr noundef nonnull align 8 dereferenceable(32) %5)
  ret i1 %6
}

; Function Attrs: mustprogress uwtable
define linkonce_odr hidden noundef zeroext i1 @_ZNK10arith_util10is_numeralEPK4exprR8rational(ptr noundef nonnull align 8 dereferenceable(16) %0, ptr noundef %1, ptr noundef nonnull align 8 dereferenceable(32) %2) #6 comdat align 2 {
  %4 = alloca ptr, align 8
  %5 = alloca ptr, align 8
  %6 = alloca ptr, align 8
  %7 = alloca i8, align 1
  store ptr %0, ptr %4, align 8, !tbaa !21
  store ptr %1, ptr %5, align 8, !tbaa !18
  store ptr %2, ptr %6, align 8, !tbaa !58
  %8 = load ptr, ptr %4, align 8
  call void @llvm.lifetime.start.p0(i64 1, ptr %7) #3
  %9 = load ptr, ptr %5, align 8, !tbaa !18
  %10 = load ptr, ptr %6, align 8, !tbaa !58
  %11 = call noundef zeroext i1 @_ZNK10arith_util10is_numeralEPK4exprR8rationalRb(ptr noundef nonnull align 8 dereferenceable(16) %8, ptr noundef %9, ptr noundef nonnull align 8 dereferenceable(32) %10, ptr noundef nonnull align 1 dereferenceable(1) %7)
  call void @llvm.lifetime.end.p0(i64 1, ptr %7) #3
  ret i1 %11
}

; Function Attrs: mustprogress uwtable
define linkonce_odr hidden void @_ZN8rationalC2Ev(ptr noundef nonnull align 8 dereferenceable(32) %0) unnamed_addr #6 comdat align 2 {
  %2 = alloca ptr, align 8
  store ptr %0, ptr %2, align 8, !tbaa !58
  %3 = load ptr, ptr %2, align 8
  %4 = getelementptr inbounds nuw %class.rational, ptr %3, i32 0, i32 0
  call void @_ZN3mpqC2Ev(ptr noundef nonnull align 8 dereferenceable(32) %4)
  ret void
}

; Function Attrs: mustprogress uwtable
define linkonce_odr hidden noundef ptr @_ZNK10arith_util6mk_mulEP4exprS1_(ptr noundef nonnull align 8 dereferenceable(16) %0, ptr noundef %1, ptr noundef %2) #6 comdat align 2 {
  %4 = alloca ptr, align 8
  %5 = alloca ptr, align 8
  %6 = alloca ptr, align 8
  store ptr %0, ptr %4, align 8, !tbaa !21
  store ptr %1, ptr %5, align 8, !tbaa !18
  store ptr %2, ptr %6, align 8, !tbaa !18
  %7 = load ptr, ptr %4, align 8
  %8 = getelementptr inbounds nuw %class.arith_util, ptr %7, i32 0, i32 0
  %9 = load ptr, ptr %8, align 8, !tbaa !23
  %10 = load ptr, ptr %5, align 8, !tbaa !18
  %11 = load ptr, ptr %6, align 8, !tbaa !18
  %12 = call noundef ptr @_ZN11ast_manager6mk_appEiiP4exprS1_(ptr noundef nonnull align 8 dereferenceable(976) %9, i32 noundef 5, i32 noundef 9, ptr noundef %10, ptr noundef %11)
  ret ptr %12
}

; Function Attrs: mustprogress uwtable
define linkonce_odr hidden noundef ptr @_ZN10arith_util6mk_divEP4exprS1_(ptr noundef nonnull align 8 dereferenceable(16) %0, ptr noundef %1, ptr noundef %2) #6 comdat align 2 {
  %4 = alloca ptr, align 8
  %5 = alloca ptr, align 8
  %6 = alloca ptr, align 8
  store ptr %0, ptr %4, align 8, !tbaa !21
  store ptr %1, ptr %5, align 8, !tbaa !18
  store ptr %2, ptr %6, align 8, !tbaa !18
  %7 = load ptr, ptr %4, align 8
  %8 = getelementptr inbounds nuw %class.arith_util, ptr %7, i32 0, i32 0
  %9 = load ptr, ptr %8, align 8, !tbaa !23
  %10 = load ptr, ptr %5, align 8, !tbaa !18
  %11 = load ptr, ptr %6, align 8, !tbaa !18
  %12 = call noundef ptr @_ZN11ast_manager6mk_appEiiP4exprS1_(ptr noundef nonnull align 8 dereferenceable(976) %9, i32 noundef 5, i32 noundef 10, ptr noundef %10, ptr noundef %11)
  ret ptr %12
}

; Function Attrs: mustprogress uwtable
define linkonce_odr hidden noundef zeroext i1 @_ZNK10arith_util7is_zeroEPK4expr(ptr noundef nonnull align 8 dereferenceable(16) %0, ptr noundef %1) #6 comdat align 2 personality ptr @__gxx_personality_v0 {
  %3 = alloca ptr, align 8
  %4 = alloca ptr, align 8
  %5 = alloca %class.rational, align 8
  %6 = alloca ptr, align 8
  %7 = alloca i32, align 4
  store ptr %0, ptr %3, align 8, !tbaa !21
  store ptr %1, ptr %4, align 8, !tbaa !18
  %8 = load ptr, ptr %3, align 8
  call void @llvm.lifetime.start.p0(i64 32, ptr %5) #3
  call void @_ZN8rationalC2Ev(ptr noundef nonnull align 8 dereferenceable(32) %5)
  %9 = load ptr, ptr %4, align 8, !tbaa !18
  %10 = invoke noundef zeroext i1 @_ZNK10arith_util10is_numeralEPK4exprR8rational(ptr noundef nonnull align 8 dereferenceable(16) %8, ptr noundef %9, ptr noundef nonnull align 8 dereferenceable(32) %5)
          to label %11 unwind label %17

11:                                               ; preds = %2
  br i1 %10, label %12, label %15

12:                                               ; preds = %11
  %13 = invoke noundef zeroext i1 @_ZNK8rational7is_zeroEv(ptr noundef nonnull align 8 dereferenceable(32) %5)
          to label %14 unwind label %17

14:                                               ; preds = %12
  br label %15

15:                                               ; preds = %14, %11
  %16 = phi i1 [ false, %11 ], [ %13, %14 ]
  call void @_ZN8rationalD2Ev(ptr noundef nonnull align 8 dereferenceable(32) %5) #3
  call void @llvm.lifetime.end.p0(i64 32, ptr %5) #3
  ret i1 %16

17:                                               ; preds = %12, %2
  %18 = landingpad { ptr, i32 }
          cleanup
  %19 = extractvalue { ptr, i32 } %18, 0
  store ptr %19, ptr %6, align 8
  %20 = extractvalue { ptr, i32 } %18, 1
  store i32 %20, ptr %7, align 4
  call void @_ZN8rationalD2Ev(ptr noundef nonnull align 8 dereferenceable(32) %5) #3
  call void @llvm.lifetime.end.p0(i64 32, ptr %5) #3
  br label %21

21:                                               ; preds = %17
  %22 = load ptr, ptr %6, align 8
  %23 = load i32, ptr %7, align 4
  %24 = insertvalue { ptr, i32 } poison, ptr %22, 0
  %25 = insertvalue { ptr, i32 } %24, i32 %23, 1
  resume { ptr, i32 } %25
}

; Function Attrs: mustprogress uwtable
define hidden void @_ZN5arith6solver12mk_div_axiomEP4exprS2_(ptr noundef nonnull align 8 dereferenceable(1000) %0, ptr noundef %1, ptr noundef %2) #6 align 2 {
  %4 = alloca ptr, align 8
  %5 = alloca ptr, align 8
  %6 = alloca ptr, align 8
  %7 = alloca %"class.sat::literal", align 4
  %8 = alloca %"class.sat::literal", align 4
  %9 = alloca %"class.sat::literal", align 4
  %10 = alloca %"class.sat::literal", align 4
  store ptr %0, ptr %4, align 8, !tbaa !16
  store ptr %1, ptr %5, align 8, !tbaa !18
  store ptr %2, ptr %6, align 8, !tbaa !18
  %11 = load ptr, ptr %4, align 8
  %12 = getelementptr inbounds nuw %"class.arith::solver", ptr %11, i32 0, i32 51
  %13 = load ptr, ptr %6, align 8, !tbaa !18
  %14 = call noundef zeroext i1 @_ZNK10arith_util7is_zeroEPK4expr(ptr noundef nonnull align 8 dereferenceable(16) %12, ptr noundef %13)
  br i1 %14, label %15, label %16

15:                                               ; preds = %3
  br label %37

16:                                               ; preds = %3
  call void @llvm.lifetime.start.p0(i64 4, ptr %7) #3
  %17 = load ptr, ptr %6, align 8, !tbaa !18
  %18 = getelementptr inbounds nuw %"class.arith::solver", ptr %11, i32 0, i32 51
  %19 = call noundef ptr @_ZN10arith_util7mk_realEi(ptr noundef nonnull align 8 dereferenceable(16) %18, i32 noundef 0)
  %20 = call i32 @_ZN3euf13th_euf_solver14eq_internalizeEP4exprS2_(ptr noundef nonnull align 8 dereferenceable(108) %11, ptr noundef %17, ptr noundef %19)
  %21 = getelementptr inbounds nuw %"class.sat::literal", ptr %7, i32 0, i32 0
  store i32 %20, ptr %21, align 4
  call void @llvm.lifetime.start.p0(i64 4, ptr %8) #3
  %22 = getelementptr inbounds nuw %"class.arith::solver", ptr %11, i32 0, i32 51
  %23 = load ptr, ptr %6, align 8, !tbaa !18
  %24 = getelementptr inbounds nuw %"class.arith::solver", ptr %11, i32 0, i32 51
  %25 = load ptr, ptr %5, align 8, !tbaa !18
  %26 = load ptr, ptr %6, align 8, !tbaa !18
  %27 = call noundef ptr @_ZN10arith_util6mk_divEP4exprS1_(ptr noundef nonnull align 8 dereferenceable(16) %24, ptr noundef %25, ptr noundef %26)
  %28 = call noundef ptr @_ZNK10arith_util6mk_mulEP4exprS1_(ptr noundef nonnull align 8 dereferenceable(16) %22, ptr noundef %23, ptr noundef %27)
  %29 = load ptr, ptr %5, align 8, !tbaa !18
  %30 = call i32 @_ZN3euf13th_euf_solver14eq_internalizeEP4exprS2_(ptr noundef nonnull align 8 dereferenceable(108) %11, ptr noundef %28, ptr noundef %29)
  %31 = getelementptr inbounds nuw %"class.sat::literal", ptr %8, i32 0, i32 0
  store i32 %30, ptr %31, align 4
  call void @llvm.memcpy.p0.p0.i64(ptr align 4 %9, ptr align 4 %7, i64 4, i1 false), !tbaa.struct !20
  call void @llvm.memcpy.p0.p0.i64(ptr align 4 %10, ptr align 4 %8, i64 4, i1 false), !tbaa.struct !20
  %32 = getelementptr inbounds nuw %"class.sat::literal", ptr %9, i32 0, i32 0
  %33 = load i32, ptr %32, align 4
  %34 = getelementptr inbounds nuw %"class.sat::literal", ptr %10, i32 0, i32 0
  %35 = load i32, ptr %34, align 4
  %36 = call noundef zeroext i1 @_ZN3euf13th_euf_solver10add_clauseEN3sat7literalES2_PKNS_13th_proof_hintE(ptr noundef nonnull align 8 dereferenceable(108) %11, i32 %33, i32 %35, ptr noundef null)
  call void @llvm.lifetime.end.p0(i64 4, ptr %8) #3
  call void @llvm.lifetime.end.p0(i64 4, ptr %7) #3
  br label %37

37:                                               ; preds = %16, %15
  ret void
}