; Function Attrs: mustprogress uwtable
define hidden void @_ZN5arith6solver12mk_div_axiomEP4exprS2_(ptr noundef nonnull align 8 dereferenceable(1000) %0, ptr noundef %1, ptr noundef %2) local_unnamed_addr #4 align 2 personality ptr @__gxx_personality_v0 {
  %4 = alloca i8, align 1
  %5 = alloca %class.rational, align 8
  %6 = getelementptr inbounds nuw i8, ptr %0, i64 832
  call void @llvm.lifetime.start.p0(i64 32, ptr nonnull %5) #20
  store i32 0, ptr %5, align 8, !tbaa !3
  %7 = getelementptr inbounds nuw i8, ptr %5, i64 4
  store i8 0, ptr %7, align 4
  %8 = getelementptr inbounds nuw i8, ptr %5, i64 8
  store ptr null, ptr %8, align 8, !tbaa !10
  %9 = getelementptr inbounds nuw i8, ptr %5, i64 16
  store i32 1, ptr %9, align 8, !tbaa !3
  %10 = getelementptr inbounds nuw i8, ptr %5, i64 20
  store i8 0, ptr %10, align 4
  %11 = getelementptr inbounds nuw i8, ptr %5, i64 24
  store ptr null, ptr %11, align 8, !tbaa !10
  call void @llvm.lifetime.start.p0(i64 1, ptr nonnull %4) #20
  %12 = invoke noundef zeroext i1 @_ZNK10arith_util10is_numeralEPK4exprR8rationalRb(ptr noundef nonnull align 8 dereferenceable(16) %6, ptr noundef %2, ptr noundef nonnull align 8 dereferenceable(32) %5, ptr noundef nonnull align 1 dereferenceable(1) %4)
          to label %13 unwind label %19

13:                                               ; preds = %3
  call void @llvm.lifetime.end.p0(i64 1, ptr nonnull %4) #20
  %14 = load i32, ptr %5, align 8
  %15 = load ptr, ptr @_ZN8rational13g_mpq_managerE, align 8, !tbaa !11
  invoke void @_ZN11mpz_managerILb1EE3delEPS0_R3mpz(ptr noundef %15, ptr noundef nonnull align 8 dereferenceable(32) %5)
          to label %.noexc.i.i unwind label %16

.noexc.i.i:                                       ; preds = %13
  invoke void @_ZN11mpz_managerILb1EE3delEPS0_R3mpz(ptr noundef %15, ptr noundef nonnull align 8 dereferenceable(16) %9)
          to label %_ZNK10arith_util7is_zeroEPK4expr.exit unwind label %16

16:                                               ; preds = %.noexc.i.i, %13
  %17 = landingpad { ptr, i32 }
          catch ptr null
  %18 = extractvalue { ptr, i32 } %17, 0
  call void @__clang_call_terminate(ptr %18) #21
  unreachable

19:                                               ; preds = %3
  %20 = landingpad { ptr, i32 }
          cleanup
  call void @_ZN8rationalD2Ev(ptr noundef nonnull align 8 dereferenceable(32) %5) #20
  call void @llvm.lifetime.end.p0(i64 32, ptr nonnull %5) #20
  resume { ptr, i32 } %20

_ZNK10arith_util7is_zeroEPK4expr.exit:            ; preds = %.noexc.i.i
  %21 = icmp eq i32 %14, 0
  %22 = select i1 %12, i1 %21, i1 false
  call void @llvm.lifetime.end.p0(i64 32, ptr nonnull %5) #20
  br i1 %22, label %32, label %23

23:                                               ; preds = %_ZNK10arith_util7is_zeroEPK4expr.exit
  %24 = call noundef ptr @_ZN10arith_util7mk_realEi(ptr noundef nonnull align 8 dereferenceable(16) %6, i32 noundef 0)
  %25 = call i32 @_ZN3euf13th_euf_solver14eq_internalizeEP4exprS2_(ptr noundef nonnull align 8 dereferenceable(108) %0, ptr noundef %2, ptr noundef %24)
  %26 = load ptr, ptr %6, align 8, !tbaa !13
  %27 = call noundef ptr @_ZN11ast_manager6mk_appEiiP4exprS1_(ptr noundef nonnull align 8 dereferenceable(976) %26, i32 noundef 5, i32 noundef 10, ptr noundef %1, ptr noundef %2)
  %28 = load ptr, ptr %6, align 8, !tbaa !13
  %29 = call noundef ptr @_ZN11ast_manager6mk_appEiiP4exprS1_(ptr noundef nonnull align 8 dereferenceable(976) %28, i32 noundef 5, i32 noundef 9, ptr noundef %2, ptr noundef %27)
  %30 = call i32 @_ZN3euf13th_euf_solver14eq_internalizeEP4exprS2_(ptr noundef nonnull align 8 dereferenceable(108) %0, ptr noundef %29, ptr noundef %1)
  %31 = call noundef zeroext i1 @_ZN3euf13th_euf_solver10add_clauseEN3sat7literalES2_PKNS_13th_proof_hintE(ptr noundef nonnull align 8 dereferenceable(108) %0, i32 %25, i32 %30, ptr noundef null)
  br label %32

32:                                               ; preds = %_ZNK10arith_util7is_zeroEPK4expr.exit, %23
  ret void
}